Certificate:
    Data:
        Version: 3 (0x2)
        Serial Number:
            fa:3a:8d:7e:a3:7a:c3:16:e6:c1:d5:ba:14:0c:24:1f
        Signature Algorithm: sha256WithRSAEncryption
        Issuer: C=ES, O=teleco, CN=Root CA
        Validity
            Not Before: Oct 14 13:30:16 2024 GMT
            Not After : Oct 12 13:30:16 2034 GMT
        Subject: C=ES, O=teleco, CN=Root CA
        Subject Public Key Info:
            Public Key Algorithm: rsaEncryption
                Public-Key: (4096 bit)
                Modulus:
                    00:b1:57:b6:71:be:e7:4f:92:ef:77:d9:0a:f1:54:
                    94:4c:58:3b:45:11:d4:c3:09:32:ac:50:68:40:b9:
                    1f:eb:d8:21:7a:86:a0:3f:f2:16:05:d0:e0:72:f6:
                    c3:f8:d2:bd:d9:55:d8:fb:69:ca:80:0c:10:ee:0e:
                    7b:84:96:e2:2e:3e:1d:f1:cc:b0:08:b9:a5:7b:d2:
                    b8:35:ff:31:91:68:4e:30:7f:93:db:63:91:7e:4f:
                    08:92:2a:06:5e:03:a9:7c:1b:5d:7e:12:bd:d1:4f:
                    46:17:67:8e:00:50:3f:88:6c:0d:2d:ee:92:f1:4b:
                    e0:f4:29:8d:31:e5:75:f7:96:33:a6:18:3a:60:f9:
                    99:2c:f1:f2:6f:f9:92:01:12:d2:3e:5a:0b:d0:3b:
                    63:08:93:3c:97:29:6f:10:a6:37:8b:86:c8:1a:fd:
                    fd:af:9d:80:ac:2f:1f:ff:43:3e:65:ca:0b:b1:b2:
                    0e:78:6e:0c:7d:e7:9b:c0:f1:77:19:38:87:e0:96:
                    d2:0a:87:5c:38:39:03:58:f5:2e:ec:22:d8:8f:00:
                    7f:82:c2:af:19:fb:dc:57:63:92:cb:4a:42:8a:ba:
                    5c:2d:9c:91:38:04:16:6c:47:2b:86:17:52:2e:35:
                    56:1f:15:fc:ec:11:22:2e:7e:b4:20:5b:28:07:d0:
                    33:87:bd:1b:1d:1a:84:60:54:5d:07:b8:66:6d:a1:
                    b3:13:f0:ec:79:fc:13:c1:2e:af:0a:97:ec:ea:1f:
                    da:80:d2:bc:87:21:42:b2:57:0c:3f:ba:14:d5:1e:
                    86:c7:fc:de:7e:1e:64:d7:5b:0d:5d:f6:fa:ff:0b:
                    6c:73:c7:62:d2:95:55:89:4e:35:0d:0f:6d:84:52:
                    1a:3d:b8:fc:97:cb:6d:cc:02:75:1d:cb:fc:22:09:
                    24:7d:c1:bf:c3:45:d4:ac:20:4d:53:40:7c:30:8a:
                    b8:b6:3d:ba:a1:2c:31:da:7c:d5:06:67:e4:11:74:
                    eb:a7:ef:61:73:b2:ca:8d:c0:b8:c2:97:05:58:e5:
                    1e:48:7e:47:58:75:2d:5c:cb:26:66:2b:13:f7:c7:
                    a4:8f:8a:81:69:78:89:48:e3:26:da:62:82:1e:18:
                    9e:c4:30:43:e7:34:ab:2f:e5:f3:d2:de:df:ca:85:
                    1f:db:a3:e0:98:a1:cd:52:43:1a:a4:5a:bc:8a:2b:
                    89:93:c0:94:a7:eb:8f:05:1b:8f:d4:e7:34:d4:78:
                    03:81:94:e2:84:bf:c4:19:3c:cb:07:a1:0b:20:f9:
                    88:34:6e:39:6c:e0:6e:ac:80:8e:2a:73:61:91:c0:
                    a6:48:74:76:e5:96:7d:3f:9c:90:7a:9a:68:2e:89:
                    e6:dd:2f
                Exponent: 65537 (0x10001)
        X509v3 extensions:
            X509v3 Basic Constraints: critical
                CA:TRUE
            X509v3 Key Usage: critical
                Certificate Sign, CRL Sign
            X509v3 Subject Key Identifier: 
                FE:23:03:A3:17:B5:8D:98:93:CA:96:61:1F:DB:E4:AE:F9:2A:29:17
    Signature Algorithm: sha256WithRSAEncryption
    Signature Value:
        63:c8:62:53:c7:b7:9a:cf:a2:c0:fa:27:55:b4:a2:c8:06:48:
        74:e1:0e:0d:6a:b2:c5:07:35:eb:10:46:9e:f4:ee:c7:cf:5b:
        b8:dc:d2:c4:49:4e:ac:48:6a:6b:f3:0f:59:e0:19:ab:e0:27:
        a8:6d:6b:f1:4e:87:72:9c:fe:0d:85:9a:e0:c4:db:56:c6:61:
        46:8b:ac:92:29:b5:02:b7:df:bf:2e:27:eb:aa:47:ad:59:95:
        ad:7d:e1:4e:ac:cc:2e:b1:cd:04:79:ca:9c:42:53:70:30:34:
        90:ba:94:35:30:f7:b4:68:14:9c:47:99:39:18:1e:c2:6c:b7:
        b9:58:e3:5e:a9:d7:51:e2:93:b6:91:4a:d0:9c:5d:1d:9a:a8:
        6a:1c:78:8a:e5:52:91:25:ba:b1:e5:f9:c5:51:f3:9c:a5:c8:
        3c:9b:ae:0d:c1:5c:13:78:83:19:de:fc:ba:45:27:cf:68:24:
        ad:68:77:50:39:9b:bc:36:e6:16:08:dd:52:06:ae:af:2d:de:
        28:ab:a1:fb:ed:60:eb:17:a7:d0:5a:d3:b3:b4:c8:25:56:46:
        1a:3e:3f:62:dd:3e:2f:cf:70:f3:11:e7:19:9b:dd:c4:04:25:
        05:99:99:ca:75:73:1c:f3:9e:05:b5:7a:5c:28:4f:37:de:e8:
        b3:3b:3f:a1:59:22:46:8d:ad:c8:99:fe:05:eb:80:18:a2:dc:
        2d:6e:e1:57:3b:14:f7:ba:dd:8c:17:70:b3:ef:cc:c2:f1:e9:
        25:ee:ae:5f:ad:84:e5:34:86:89:24:cc:43:ea:70:2a:89:8f:
        e1:2f:5c:48:ef:e9:96:1f:35:f3:2a:22:9e:f9:37:e5:8f:b9:
        60:19:49:fd:60:4d:67:9a:8c:44:5a:85:4d:47:bb:de:18:09:
        88:7e:56:5f:c2:ae:5a:3b:a5:fb:00:2c:99:9c:bb:aa:0f:f6:
        22:5f:44:b5:3f:59:ff:06:3d:e8:ba:cc:a3:fd:46:66:cd:77:
        9a:e0:ff:be:83:7f:38:88:a1:f2:1c:66:52:75:f9:19:b7:95:
        5e:2e:97:64:ef:0c:c6:88:c2:5b:02:d2:25:bb:f6:0f:e7:ca:
        57:5a:e4:c3:38:35:cb:fe:e2:f9:02:e7:68:58:fe:82:84:83:
        50:37:b5:63:99:4d:bf:85:95:d9:ac:83:00:bc:b8:4e:0b:20:
        3a:84:51:46:46:9d:9e:eb:6a:87:9a:f7:17:1c:b5:00:c2:a3:
        82:e3:b4:13:28:09:26:78:5c:1d:15:e3:a2:cd:4f:12:57:9d:
        cf:e1:a0:3d:2d:14:b3:1e:30:60:46:5d:e1:53:7a:1f:c8:2a:
        45:de:3f:af:6d:b6:a1:d8
-----BEGIN CERTIFICATE-----
MIIFLTCCAxWgAwIBAgIRAPo6jX6jesMW5sHVuhQMJB8wDQYJKoZIhvcNAQELBQAw
MDELMAkGA1UEBhMCRVMxDzANBgNVBAoMBnRlbGVjbzEQMA4GA1UEAwwHUm9vdCBD
QTAeFw0yNDEwMTQxMzMwMTZaFw0zNDEwMTIxMzMwMTZaMDAxCzAJBgNVBAYTAkVT
MQ8wDQYDVQQKDAZ0ZWxlY28xEDAOBgNVBAMMB1Jvb3QgQ0EwggIiMA0GCSqGSIb3
DQEBAQUAA4ICDwAwggIKAoICAQCxV7ZxvudPku932QrxVJRMWDtFEdTDCTKsUGhA
uR/r2CF6hqA/8hYF0OBy9sP40r3ZVdj7acqADBDuDnuEluIuPh3xzLAIuaV70rg1
/zGRaE4wf5PbY5F+TwiSKgZeA6l8G11+Er3RT0YXZ44AUD+IbA0t7pLxS+D0KY0x
5XX3ljOmGDpg+Zks8fJv+ZIBEtI+WgvQO2MIkzyXKW8QpjeLhsga/f2vnYCsLx//
Qz5lyguxsg54bgx955vA8XcZOIfgltIKh1w4OQNY9S7sItiPAH+Cwq8Z+9xXY5LL
SkKKulwtnJE4BBZsRyuGF1IuNVYfFfzsESIufrQgWygH0DOHvRsdGoRgVF0HuGZt
obMT8Ox5/BPBLq8Kl+zqH9qA0ryHIUKyVww/uhTVHobH/N5+HmTXWw1d9vr/C2xz
x2LSlVWJTjUND22EUho9uPyXy23MAnUdy/wiCSR9wb/DRdSsIE1TQHwwiri2Pbqh
LDHafNUGZ+QRdOun72FzssqNwLjClwVY5R5IfkdYdS1cyyZmKxP3x6SPioFpeIlI
4ybaYoIeGJ7EMEPnNKsv5fPS3t/KhR/bo+CYoc1SQxqkWryKK4mTwJSn648FG4/U
5zTUeAOBlOKEv8QZPMsHoQsg+Yg0bjls4G6sgI4qc2GRwKZIdHblln0/nJB6mmgu
iebdLwIDAQABo0IwQDAPBgNVHRMBAf8EBTADAQH/MA4GA1UdDwEB/wQEAwIBBjAd
BgNVHQ4EFgQU/iMDoxe1jZiTypZhH9vkrvkqKRcwDQYJKoZIhvcNAQELBQADggIB
AGPIYlPHt5rPosD6J1W0osgGSHThDg1qssUHNesQRp707sfPW7jc0sRJTqxIamvz
D1ngGavgJ6hta/FOh3Kc/g2FmuDE21bGYUaLrJIptQK3378uJ+uqR61Zla194U6s
zC6xzQR5ypxCU3AwNJC6lDUw97RoFJxHmTkYHsJst7lY416p11Hik7aRStCcXR2a
qGoceIrlUpElurHl+cVR85ylyDybrg3BXBN4gxne/LpFJ89oJK1od1A5m7w25hYI
3VIGrq8t3iirofvtYOsXp9Ba07O0yCVWRho+P2LdPi/PcPMR5xmb3cQEJQWZmcp1
cxzzngW1elwoTzfe6LM7P6FZIkaNrciZ/gXrgBii3C1u4Vc7FPe63YwXcLPvzMLx
6SXurl+thOU0hokkzEPqcCqJj+EvXEjv6ZYfNfMqIp75N+WPuWAZSf1gTWeajERa
hU1Hu94YCYh+Vl/Crlo7pfsALJmcu6oP9iJfRLU/Wf8GPei6zKP9RmbNd5rg/76D
fziIofIcZlJ1+Rm3lV4ul2TvDMaIwlsC0iW79g/nylda5MM4Ncv+4vkC52hY/oKE
g1A3tWOZTb+FldmsgwC8uE4LIDqEUUZGnZ7raoea9xcctQDCo4LjtBMoCSZ4XB0V
46LNTxJXnc/hoD0tFLMeMGBGXeFTeh/IKkXeP69ttqHY
-----END CERTIFICATE-----
